target datalayout = "e-m:e-p270:32:32-p271:32:32-p272:64:64-i64:64-i128:128-f80:128-n8:16:32:64-S128"
target triple = "x86_64-pc-linux-gnu"

%struct.png_struct_def = type { [1 x %struct.__jmp_buf_tag], ptr, ptr, i64, ptr, ptr, ptr, ptr, ptr, ptr, ptr, ptr, ptr, i8, i8, i32, i32, i32, i32, %struct.z_stream_s, ptr, i32, i32, i32, i32, i32, i32, i32, i32, i32, i32, i32, i32, i32, i32, i32, i32, i32, i32, i32, i32, i32, i64, i32, i32, i32, ptr, ptr, ptr, ptr, i64, i32, i32, ptr, i16, i32, i16, i8, i8, i8, i8, i8, i8, i8, i8, i8, i8, i8, i8, i8, i8, i8, i16, i8, i32, %struct.png_color_16_struct, %struct.png_color_16_struct, ptr, i32, i32, %struct.png_xy, i32, i32, i32, i32, i32, ptr, ptr, ptr, ptr, ptr, ptr, %struct.png_color_8_struct, %struct.png_color_8_struct, ptr, %struct.png_color_16_struct, ptr, ptr, ptr, ptr, ptr, ptr, ptr, ptr, ptr, i32, i32, i64, i64, i64, i64, i32, i32, ptr, ptr, i32, [29 x i8], i32, ptr, ptr, i32, i32, ptr, i8, i8, i16, i16, ptr, i32, i8, ptr, ptr, ptr, ptr, ptr, ptr, ptr, i8, i32, i32, i32, i64, %struct.png_unknown_chunk_t, i64, ptr, i64, i32, i32, ptr, [4 x ptr] }
%struct.__jmp_buf_tag = type { [8 x i64], i32, %struct.__sigset_t }
%struct.__sigset_t = type { [16 x i64] }
%struct.z_stream_s = type { ptr, i32, i64, ptr, i32, i64, ptr, ptr, ptr, ptr, ptr, i32, i64, i64 }
%struct.png_xy = type { i32, i32, i32, i32, i32, i32, i32, i32 }
%struct.png_color_8_struct = type { i8, i8, i8, i8, i8 }
%struct.png_color_16_struct = type { i8, i16, i16, i16, i16 }
%struct.png_unknown_chunk_t = type { [5 x i8], ptr, i64, i8 }

; Function Attrs: nounwind uwtable
define i32 @png_crc_finish(ptr noalias noundef %0, i32 noundef %1) #0 {
  %3 = alloca ptr, align 8
  %4 = alloca i32, align 4
  store ptr %0, ptr %3, align 8, !tbaa !3
  store i32 %1, ptr %4, align 4, !tbaa !11
  %5 = load ptr, ptr %3, align 8, !tbaa !3
  %6 = load i32, ptr %4, align 4, !tbaa !11
  %7 = call i32 @png_crc_finish_critical(ptr noundef %5, i32 noundef %6, i32 noundef 0)
  ret i32 %7
}

; Function Attrs: nounwind uwtable
define void @png_crc_read(ptr noalias noundef %0, ptr noundef %1, i32 noundef %2) #0 {
  %4 = alloca ptr, align 8
  %5 = alloca ptr, align 8
  %6 = alloca i32, align 4
  store ptr %0, ptr %4, align 8, !tbaa !3
  store ptr %1, ptr %5, align 8, !tbaa !8
  store i32 %2, ptr %6, align 4, !tbaa !11
  %7 = load ptr, ptr %4, align 8, !tbaa !3
  %8 = icmp eq ptr %7, null
  br i1 %8, label %9, label %10

9:                                                ; preds = %3
  br label %19

10:                                               ; preds = %3
  %11 = load ptr, ptr %4, align 8, !tbaa !3
  %12 = load ptr, ptr %5, align 8, !tbaa !8
  %13 = load i32, ptr %6, align 4, !tbaa !11
  %14 = zext i32 %13 to i64
  call void @png_read_data(ptr noundef %11, ptr noundef %12, i64 noundef %14)
  %15 = load ptr, ptr %4, align 8, !tbaa !3
  %16 = load ptr, ptr %5, align 8, !tbaa !8
  %17 = load i32, ptr %6, align 4, !tbaa !11
  %18 = zext i32 %17 to i64
  call void @png_calculate_crc(ptr noundef %15, ptr noundef %16, i64 noundef %18)
  br label %19

19:                                               ; preds = %10, %9
  ret void
}

; Function Attrs: nounwind uwtable
define internal i32 @png_handle_mDCV(ptr noalias noundef %0, ptr noalias noundef %1, i32 noundef %2) #0 {
  %4 = alloca i32, align 4
  %5 = alloca ptr, align 8
  %6 = alloca ptr, align 8
  %7 = alloca i32, align 4
  %8 = alloca %struct.png_xy, align 4
  %9 = alloca [24 x i8], align 16
  %10 = alloca i32, align 4
  store ptr %0, ptr %5, align 8, !tbaa !3
  store ptr %1, ptr %6, align 8, !tbaa !13
  store i32 %2, ptr %7, align 4, !tbaa !11
  call void @llvm.lifetime.start.p0(i64 32, ptr %8) #7
  call void @llvm.lifetime.start.p0(i64 24, ptr %9) #7
  %11 = load ptr, ptr %5, align 8, !tbaa !3
  %12 = getelementptr inbounds [24 x i8], ptr %9, i64 0, i64 0
  call void @png_crc_read(ptr noundef %11, ptr noundef %12, i32 noundef 24)
  %13 = load ptr, ptr %5, align 8, !tbaa !3
  %14 = call i32 @png_crc_finish(ptr noundef %13, i32 noundef 0)
  %15 = icmp ne i32 %14, 0
  br i1 %15, label %16, label %17

16:                                               ; preds = %3
  store i32 0, ptr %4, align 4
  store i32 1, ptr %10, align 4
  br label %208

17:                                               ; preds = %3
  %18 = getelementptr inbounds [24 x i8], ptr %9, i64 0, i64 0
  %19 = getelementptr inbounds nuw i8, ptr %18, i64 0
  %20 = load i8, ptr %19, align 1, !tbaa !10
  %21 = zext i8 %20 to i32
  %22 = shl i32 %21, 8
  %23 = getelementptr inbounds [24 x i8], ptr %9, i64 0, i64 0
  %24 = getelementptr inbounds nuw i8, ptr %23, i64 0
  %25 = getelementptr inbounds i8, ptr %24, i64 1
  %26 = load i8, ptr %25, align 1, !tbaa !10
  %27 = zext i8 %26 to i32
  %28 = add i32 %22, %27
  %29 = trunc i32 %28 to i16
  %30 = zext i16 %29 to i32
  %31 = shl i32 %30, 1
  %32 = getelementptr inbounds nuw %struct.png_xy, ptr %8, i32 0, i32 0
  store i32 %31, ptr %32, align 4, !tbaa !135
  %33 = getelementptr inbounds [24 x i8], ptr %9, i64 0, i64 0
  %34 = getelementptr inbounds nuw i8, ptr %33, i64 2
  %35 = load i8, ptr %34, align 1, !tbaa !10
  %36 = zext i8 %35 to i32
  %37 = shl i32 %36, 8
  %38 = getelementptr inbounds [24 x i8], ptr %9, i64 0, i64 0
  %39 = getelementptr inbounds nuw i8, ptr %38, i64 2
  %40 = getelementptr inbounds i8, ptr %39, i64 1
  %41 = load i8, ptr %40, align 1, !tbaa !10
  %42 = zext i8 %41 to i32
  %43 = add i32 %37, %42
  %44 = trunc i32 %43 to i16
  %45 = zext i16 %44 to i32
  %46 = shl i32 %45, 1
  %47 = getelementptr inbounds nuw %struct.png_xy, ptr %8, i32 0, i32 1
  store i32 %46, ptr %47, align 4, !tbaa !136
  %48 = getelementptr inbounds [24 x i8], ptr %9, i64 0, i64 0
  %49 = getelementptr inbounds nuw i8, ptr %48, i64 4
  %50 = load i8, ptr %49, align 1, !tbaa !10
  %51 = zext i8 %50 to i32
  %52 = shl i32 %51, 8
  %53 = getelementptr inbounds [24 x i8], ptr %9, i64 0, i64 0
  %54 = getelementptr inbounds nuw i8, ptr %53, i64 4
  %55 = getelementptr inbounds i8, ptr %54, i64 1
  %56 = load i8, ptr %55, align 1, !tbaa !10
  %57 = zext i8 %56 to i32
  %58 = add i32 %52, %57
  %59 = trunc i32 %58 to i16
  %60 = zext i16 %59 to i32
  %61 = shl i32 %60, 1
  %62 = getelementptr inbounds nuw %struct.png_xy, ptr %8, i32 0, i32 2
  store i32 %61, ptr %62, align 4, !tbaa !137
  %63 = getelementptr inbounds [24 x i8], ptr %9, i64 0, i64 0
  %64 = getelementptr inbounds nuw i8, ptr %63, i64 6
  %65 = load i8, ptr %64, align 1, !tbaa !10
  %66 = zext i8 %65 to i32
  %67 = shl i32 %66, 8
  %68 = getelementptr inbounds [24 x i8], ptr %9, i64 0, i64 0
  %69 = getelementptr inbounds nuw i8, ptr %68, i64 6
  %70 = getelementptr inbounds i8, ptr %69, i64 1
  %71 = load i8, ptr %70, align 1, !tbaa !10
  %72 = zext i8 %71 to i32
  %73 = add i32 %67, %72
  %74 = trunc i32 %73 to i16
  %75 = zext i16 %74 to i32
  %76 = shl i32 %75, 1
  %77 = getelementptr inbounds nuw %struct.png_xy, ptr %8, i32 0, i32 3
  store i32 %76, ptr %77, align 4, !tbaa !138
  %78 = getelementptr inbounds [24 x i8], ptr %9, i64 0, i64 0
  %79 = getelementptr inbounds nuw i8, ptr %78, i64 8
  %80 = load i8, ptr %79, align 1, !tbaa !10
  %81 = zext i8 %80 to i32
  %82 = shl i32 %81, 8
  %83 = getelementptr inbounds [24 x i8], ptr %9, i64 0, i64 0
  %84 = getelementptr inbounds nuw i8, ptr %83, i64 8
  %85 = getelementptr inbounds i8, ptr %84, i64 1
  %86 = load i8, ptr %85, align 1, !tbaa !10
  %87 = zext i8 %86 to i32
  %88 = add i32 %82, %87
  %89 = trunc i32 %88 to i16
  %90 = zext i16 %89 to i32
  %91 = shl i32 %90, 1
  %92 = getelementptr inbounds nuw %struct.png_xy, ptr %8, i32 0, i32 4
  store i32 %91, ptr %92, align 4, !tbaa !139
  %93 = getelementptr inbounds [24 x i8], ptr %9, i64 0, i64 0
  %94 = getelementptr inbounds nuw i8, ptr %93, i64 10
  %95 = load i8, ptr %94, align 1, !tbaa !10
  %96 = zext i8 %95 to i32
  %97 = shl i32 %96, 8
  %98 = getelementptr inbounds [24 x i8], ptr %9, i64 0, i64 0
  %99 = getelementptr inbounds nuw i8, ptr %98, i64 10
  %100 = getelementptr inbounds i8, ptr %99, i64 1
  %101 = load i8, ptr %100, align 1, !tbaa !10
  %102 = zext i8 %101 to i32
  %103 = add i32 %97, %102
  %104 = trunc i32 %103 to i16
  %105 = zext i16 %104 to i32
  %106 = shl i32 %105, 1
  %107 = getelementptr inbounds nuw %struct.png_xy, ptr %8, i32 0, i32 5
  store i32 %106, ptr %107, align 4, !tbaa !140
  %108 = getelementptr inbounds [24 x i8], ptr %9, i64 0, i64 0
  %109 = getelementptr inbounds nuw i8, ptr %108, i64 12
  %110 = load i8, ptr %109, align 1, !tbaa !10
  %111 = zext i8 %110 to i32
  %112 = shl i32 %111, 8
  %113 = getelementptr inbounds [24 x i8], ptr %9, i64 0, i64 0
  %114 = getelementptr inbounds nuw i8, ptr %113, i64 12
  %115 = getelementptr inbounds i8, ptr %114, i64 1
  %116 = load i8, ptr %115, align 1, !tbaa !10
  %117 = zext i8 %116 to i32
  %118 = add i32 %112, %117
  %119 = trunc i32 %118 to i16
  %120 = zext i16 %119 to i32
  %121 = shl i32 %120, 1
  %122 = getelementptr inbounds nuw %struct.png_xy, ptr %8, i32 0, i32 6
  store i32 %121, ptr %122, align 4, !tbaa !133
  %123 = getelementptr inbounds [24 x i8], ptr %9, i64 0, i64 0
  %124 = getelementptr inbounds nuw i8, ptr %123, i64 14
  %125 = load i8, ptr %124, align 1, !tbaa !10
  %126 = zext i8 %125 to i32
  %127 = shl i32 %126, 8
  %128 = getelementptr inbounds [24 x i8], ptr %9, i64 0, i64 0
  %129 = getelementptr inbounds nuw i8, ptr %128, i64 14
  %130 = getelementptr inbounds i8, ptr %129, i64 1
  %131 = load i8, ptr %130, align 1, !tbaa !10
  %132 = zext i8 %131 to i32
  %133 = add i32 %127, %132
  %134 = trunc i32 %133 to i16
  %135 = zext i16 %134 to i32
  %136 = shl i32 %135, 1
  %137 = getelementptr inbounds nuw %struct.png_xy, ptr %8, i32 0, i32 7
  store i32 %136, ptr %137, align 4, !tbaa !134
  %138 = load ptr, ptr %5, align 8, !tbaa !3
  %139 = load ptr, ptr %6, align 8, !tbaa !13
  %140 = getelementptr inbounds nuw %struct.png_xy, ptr %8, i32 0, i32 6
  %141 = load i32, ptr %140, align 4, !tbaa !133
  %142 = getelementptr inbounds nuw %struct.png_xy, ptr %8, i32 0, i32 7
  %143 = load i32, ptr %142, align 4, !tbaa !134
  %144 = getelementptr inbounds nuw %struct.png_xy, ptr %8, i32 0, i32 0
  %145 = load i32, ptr %144, align 4, !tbaa !135
  %146 = getelementptr inbounds nuw %struct.png_xy, ptr %8, i32 0, i32 1
  %147 = load i32, ptr %146, align 4, !tbaa !136
  %148 = getelementptr inbounds nuw %struct.png_xy, ptr %8, i32 0, i32 2
  %149 = load i32, ptr %148, align 4, !tbaa !137
  %150 = getelementptr inbounds nuw %struct.png_xy, ptr %8, i32 0, i32 3
  %151 = load i32, ptr %150, align 4, !tbaa !138
  %152 = getelementptr inbounds nuw %struct.png_xy, ptr %8, i32 0, i32 4
  %153 = load i32, ptr %152, align 4, !tbaa !139
  %154 = getelementptr inbounds nuw %struct.png_xy, ptr %8, i32 0, i32 5
  %155 = load i32, ptr %154, align 4, !tbaa !140
  %156 = getelementptr inbounds [24 x i8], ptr %9, i64 0, i64 0
  %157 = getelementptr inbounds nuw i8, ptr %156, i64 16
  %158 = load i8, ptr %157, align 1, !tbaa !10
  %159 = zext i8 %158 to i32
  %160 = shl i32 %159, 24
  %161 = getelementptr inbounds [24 x i8], ptr %9, i64 0, i64 0
  %162 = getelementptr inbounds nuw i8, ptr %161, i64 16
  %163 = getelementptr inbounds i8, ptr %162, i64 1
  %164 = load i8, ptr %163, align 1, !tbaa !10
  %165 = zext i8 %164 to i32
  %166 = shl i32 %165, 16
  %167 = add i32 %160, %166
  %168 = getelementptr inbounds [24 x i8], ptr %9, i64 0, i64 0
  %169 = getelementptr inbounds nuw i8, ptr %168, i64 16
  %170 = getelementptr inbounds i8, ptr %169, i64 2
  %171 = load i8, ptr %170, align 1, !tbaa !10
  %172 = zext i8 %171 to i32
  %173 = shl i32 %172, 8
  %174 = add i32 %167, %173
  %175 = getelementptr inbounds [24 x i8], ptr %9, i64 0, i64 0
  %176 = getelementptr inbounds nuw i8, ptr %175, i64 16
  %177 = getelementptr inbounds i8, ptr %176, i64 3
  %178 = load i8, ptr %177, align 1, !tbaa !10
  %179 = zext i8 %178 to i32
  %180 = add i32 %174, %179
  %181 = getelementptr inbounds [24 x i8], ptr %9, i64 0, i64 0
  %182 = getelementptr inbounds nuw i8, ptr %181, i64 20
  %183 = load i8, ptr %182, align 1, !tbaa !10
  %184 = zext i8 %183 to i32
  %185 = shl i32 %184, 24
  %186 = getelementptr inbounds [24 x i8], ptr %9, i64 0, i64 0
  %187 = getelementptr inbounds nuw i8, ptr %186, i64 20
  %188 = getelementptr inbounds i8, ptr %187, i64 1
  %189 = load i8, ptr %188, align 1, !tbaa !10
  %190 = zext i8 %189 to i32
  %191 = shl i32 %190, 16
  %192 = add i32 %185, %191
  %193 = getelementptr inbounds [24 x i8], ptr %9, i64 0, i64 0
  %194 = getelementptr inbounds nuw i8, ptr %193, i64 20
  %195 = getelementptr inbounds i8, ptr %194, i64 2
  %196 = load i8, ptr %195, align 1, !tbaa !10
  %197 = zext i8 %196 to i32
  %198 = shl i32 %197, 8
  %199 = add i32 %192, %198
  %200 = getelementptr inbounds [24 x i8], ptr %9, i64 0, i64 0
  %201 = getelementptr inbounds nuw i8, ptr %200, i64 20
  %202 = getelementptr inbounds i8, ptr %201, i64 3
  %203 = load i8, ptr %202, align 1, !tbaa !10
  %204 = zext i8 %203 to i32
  %205 = add i32 %199, %204
  call void @png_set_mDCV_fixed(ptr noundef %138, ptr noundef %139, i32 noundef %141, i32 noundef %143, i32 noundef %145, i32 noundef %147, i32 noundef %149, i32 noundef %151, i32 noundef %153, i32 noundef %155, i32 noundef %180, i32 noundef %205)
  %206 = load ptr, ptr %5, align 8, !tbaa !3
  %207 = getelementptr inbounds nuw %struct.png_struct_def, ptr %206, i32 0, i32 80
  call void @llvm.memcpy.p0.p0.i64(ptr align 8 %207, ptr align 4 %8, i64 32, i1 false), !tbaa.struct !141
  store i32 3, ptr %4, align 4
  store i32 1, ptr %10, align 4
  br label %208

208:                                              ; preds = %17, %16
  call void @llvm.lifetime.end.p0(i64 24, ptr %9) #7
  call void @llvm.lifetime.end.p0(i64 32, ptr %8) #7
  %209 = load i32, ptr %4, align 4
  ret i32 %209
}