; Function Attrs: nounwind uwtable
define internal range(i32 0, 4) i32 @png_handle_mDCV(ptr noalias noundef %0, ptr noalias noundef %1, i32 %2) #0 {
  %4 = alloca [24 x i8], align 16
  call void @llvm.lifetime.start.p0(i64 24, ptr nonnull %4) #12
  %5 = icmp eq ptr %0, null
  br i1 %5, label %png_crc_read.exit, label %6

6:                                                ; preds = %3
  call void @png_read_data(ptr noundef nonnull %0, ptr noundef nonnull %4, i64 noundef 24) #12
  call void @png_calculate_crc(ptr noundef nonnull %0, ptr noundef nonnull %4, i64 noundef 24) #12
  br label %png_crc_read.exit

png_crc_read.exit:                                ; preds = %3, %6
  %7 = call fastcc range(i32 0, 2) i32 @png_crc_finish_critical(ptr noundef %0, i32 noundef 0, i32 noundef 0)
  %.not = icmp eq i32 %7, 0
  br i1 %.not, label %8, label %117

8:                                                ; preds = %png_crc_read.exit
  %9 = load i8, ptr %4, align 16, !tbaa !3
  %10 = zext i8 %9 to i32
  %11 = getelementptr inbounds nuw i8, ptr %4, i64 1
  %12 = load i8, ptr %11, align 1, !tbaa !3
  %13 = zext i8 %12 to i32
  %14 = shl nuw nsw i32 %10, 9
  %15 = shl nuw nsw i32 %13, 1
  %16 = or disjoint i32 %15, %14
  %17 = getelementptr inbounds nuw i8, ptr %4, i64 2
  %18 = load i8, ptr %17, align 2, !tbaa !3
  %19 = zext i8 %18 to i32
  %20 = getelementptr inbounds nuw i8, ptr %4, i64 3
  %21 = load i8, ptr %20, align 1, !tbaa !3
  %22 = zext i8 %21 to i32
  %23 = shl nuw nsw i32 %19, 9
  %24 = shl nuw nsw i32 %22, 1
  %25 = or disjoint i32 %24, %23
  %26 = getelementptr inbounds nuw i8, ptr %4, i64 4
  %27 = load i8, ptr %26, align 4, !tbaa !3
  %28 = zext i8 %27 to i32
  %29 = getelementptr inbounds nuw i8, ptr %4, i64 5
  %30 = load i8, ptr %29, align 1, !tbaa !3
  %31 = zext i8 %30 to i32
  %32 = shl nuw nsw i32 %28, 9
  %33 = shl nuw nsw i32 %31, 1
  %34 = or disjoint i32 %33, %32
  %35 = getelementptr inbounds nuw i8, ptr %4, i64 6
  %36 = load i8, ptr %35, align 2, !tbaa !3
  %37 = zext i8 %36 to i32
  %38 = getelementptr inbounds nuw i8, ptr %4, i64 7
  %39 = load i8, ptr %38, align 1, !tbaa !3
  %40 = zext i8 %39 to i32
  %41 = shl nuw nsw i32 %37, 9
  %42 = shl nuw nsw i32 %40, 1
  %43 = or disjoint i32 %42, %41
  %44 = getelementptr inbounds nuw i8, ptr %4, i64 8
  %45 = load i8, ptr %44, align 8, !tbaa !3
  %46 = zext i8 %45 to i32
  %47 = getelementptr inbounds nuw i8, ptr %4, i64 9
  %48 = load i8, ptr %47, align 1, !tbaa !3
  %49 = zext i8 %48 to i32
  %50 = shl nuw nsw i32 %46, 9
  %51 = shl nuw nsw i32 %49, 1
  %52 = or disjoint i32 %51, %50
  %53 = getelementptr inbounds nuw i8, ptr %4, i64 10
  %54 = load i8, ptr %53, align 2, !tbaa !3
  %55 = zext i8 %54 to i32
  %56 = getelementptr inbounds nuw i8, ptr %4, i64 11
  %57 = load i8, ptr %56, align 1, !tbaa !3
  %58 = zext i8 %57 to i32
  %59 = shl nuw nsw i32 %55, 9
  %60 = shl nuw nsw i32 %58, 1
  %61 = or disjoint i32 %60, %59
  %62 = getelementptr inbounds nuw i8, ptr %4, i64 12
  %63 = load i8, ptr %62, align 4, !tbaa !3
  %64 = zext i8 %63 to i32
  %65 = getelementptr inbounds nuw i8, ptr %4, i64 13
  %66 = load i8, ptr %65, align 1, !tbaa !3
  %67 = zext i8 %66 to i32
  %68 = shl nuw nsw i32 %64, 9
  %69 = shl nuw nsw i32 %67, 1
  %70 = or disjoint i32 %69, %68
  %71 = getelementptr inbounds nuw i8, ptr %4, i64 14
  %72 = load i8, ptr %71, align 2, !tbaa !3
  %73 = zext i8 %72 to i32
  %74 = getelementptr inbounds nuw i8, ptr %4, i64 15
  %75 = load i8, ptr %74, align 1, !tbaa !3
  %76 = zext i8 %75 to i32
  %77 = shl nuw nsw i32 %73, 9
  %78 = shl nuw nsw i32 %76, 1
  %79 = or disjoint i32 %78, %77
  %80 = getelementptr inbounds nuw i8, ptr %4, i64 16
  %81 = load i8, ptr %80, align 16, !tbaa !3
  %82 = zext i8 %81 to i32
  %83 = shl nuw i32 %82, 24
  %84 = getelementptr inbounds nuw i8, ptr %4, i64 17
  %85 = load i8, ptr %84, align 1, !tbaa !3
  %86 = zext i8 %85 to i32
  %87 = shl nuw nsw i32 %86, 16
  %88 = or disjoint i32 %87, %83
  %89 = getelementptr inbounds nuw i8, ptr %4, i64 18
  %90 = load i8, ptr %89, align 2, !tbaa !3
  %91 = zext i8 %90 to i32
  %92 = shl nuw nsw i32 %91, 8
  %93 = or disjoint i32 %88, %92
  %94 = getelementptr inbounds nuw i8, ptr %4, i64 19
  %95 = load i8, ptr %94, align 1, !tbaa !3
  %96 = zext i8 %95 to i32
  %97 = or disjoint i32 %93, %96
  %98 = getelementptr inbounds nuw i8, ptr %4, i64 20
  %99 = load i8, ptr %98, align 4, !tbaa !3
  %100 = zext i8 %99 to i32
  %101 = shl nuw i32 %100, 24
  %102 = getelementptr inbounds nuw i8, ptr %4, i64 21
  %103 = load i8, ptr %102, align 1, !tbaa !3
  %104 = zext i8 %103 to i32
  %105 = shl nuw nsw i32 %104, 16
  %106 = or disjoint i32 %105, %101
  %107 = getelementptr inbounds nuw i8, ptr %4, i64 22
  %108 = load i8, ptr %107, align 2, !tbaa !3
  %109 = zext i8 %108 to i32
  %110 = shl nuw nsw i32 %109, 8
  %111 = or disjoint i32 %106, %110
  %112 = getelementptr inbounds nuw i8, ptr %4, i64 23
  %113 = load i8, ptr %112, align 1, !tbaa !3
  %114 = zext i8 %113 to i32
  %115 = or disjoint i32 %111, %114
  call void @png_set_mDCV_fixed(ptr noundef %0, ptr noundef %1, i32 noundef %70, i32 noundef %79, i32 noundef %16, i32 noundef %25, i32 noundef %34, i32 noundef %43, i32 noundef %52, i32 noundef %61, i32 noundef %97, i32 noundef %115) #12
  %116 = getelementptr inbounds nuw i8, ptr %0, i64 680
  store i32 %16, ptr %116, align 8, !tbaa !59
  %.sroa.5.0..sroa_idx = getelementptr inbounds nuw i8, ptr %0, i64 684
  store i32 %25, ptr %.sroa.5.0..sroa_idx, align 4, !tbaa !59
  %.sroa.7.0..sroa_idx = getelementptr inbounds nuw i8, ptr %0, i64 688
  store i32 %34, ptr %.sroa.7.0..sroa_idx, align 8, !tbaa !59
  %.sroa.9.0..sroa_idx = getelementptr inbounds nuw i8, ptr %0, i64 692
  store i32 %43, ptr %.sroa.9.0..sroa_idx, align 4, !tbaa !59
  %.sroa.11.0..sroa_idx = getelementptr inbounds nuw i8, ptr %0, i64 696
  store i32 %52, ptr %.sroa.11.0..sroa_idx, align 8, !tbaa !59
  %.sroa.13.0..sroa_idx = getelementptr inbounds nuw i8, ptr %0, i64 700
  store i32 %61, ptr %.sroa.13.0..sroa_idx, align 4, !tbaa !59
  %.sroa.15.0..sroa_idx = getelementptr inbounds nuw i8, ptr %0, i64 704
  store i32 %70, ptr %.sroa.15.0..sroa_idx, align 8, !tbaa !59
  %.sroa.17.0..sroa_idx = getelementptr inbounds nuw i8, ptr %0, i64 708
  store i32 %79, ptr %.sroa.17.0..sroa_idx, align 4, !tbaa !59
  br label %117

117:                                              ; preds = %png_crc_read.exit, %8
  %.0 = phi i32 [ 3, %8 ], [ 0, %png_crc_read.exit ]
  call void @llvm.lifetime.end.p0(i64 24, ptr nonnull %4) #12
  ret i32 %.0
}